EXPORTS 
??$?0U?$pair@QBXI@std@@@?$STLAllocator@PAU_Node@?$_Tree_nod@V?$_Tmap_traits@PBXIU?$less@PBX@std@@V?$CustomAllocator@U?$pair@PBXI@std@@@?$AlignedMmapInstance@$0BAAA@@@$0A@@std@@@std@@VSourceHeap@?$AlignedMmapInstance@$0BAAA@@@@HL@@QAE@ABV?$STLAllocator@U?$pair@QBXI@std@@VSourceHeap@?$AlignedMmapInstance@$0BAAA@@@@1@@Z
??$?0U?$pair@QBXI@std@@@?$STLAllocator@U_Node@?$_Tree_nod@V?$_Tmap_traits@PBXIU?$less@PBX@std@@V?$CustomAllocator@U?$pair@PBXI@std@@@?$AlignedMmapInstance@$0BAAA@@@$0A@@std@@@std@@VSourceHeap@?$AlignedMmapInstance@$0BAAA@@@@HL@@QAE@ABV?$STLAllocator@U?$pair@QBXI@std@@VSourceHeap@?$AlignedMmapInstance@$0BAAA@@@@1@@Z
??$swap@D@std@@YAXAAD0@Z
??0?$ANSIWrapper@V?$HybridHeap@$0PLI@V?$ThreadPoolHeap@$0EAA@$0IA@VPerThreadHoardHeap@@@@VBigHeap@@@HL@@@HL@@QAE@XZ
??0?$AddLock@VWinLockType@HL@@VNoHeader@@@@QAE@I@Z
??0?$AddLockSuperblockHeader@VWinLockType@HL@@VNoHeader@@$0BAAA@V?$HoardSuperblock@VWinLockType@HL@@$0BAAA@VBigHeapSuper@@@@VBigHeapSuper@@@@QAE@I@Z
??0?$AddLockSuperblockHeader@VWinLockType@HL@@VNoHeader@@$0BAAA@V?$HoardSuperblock@VWinLockType@HL@@$0BAAA@VSmallHeap@@@@VSmallHeap@@@@QAE@I@Z
??0?$AlignedMmapInstance@$0BAAA@@@QAE@XZ
??0?$AlignedSuperblockHeap@VWinLockType@HL@@$0BAAA@@@QAE@XZ
??0?$AlignedSuperblockHeapHelper@VWinLockType@HL@@$0BAAA@@@QAE@XZ
??0?$Array@$0CB@V?$ManageOneSuperblock@V?$EmptyClass@V?$HoardSuperblock@VWinLockType@HL@@$0BAAA@VProcessHeap1@@@@$07$0BAAA@@@@@@HL@@QAE@XZ
??0?$Array@$0CB@V?$ManageOneSuperblock@V?$EmptyClass@V?$HoardSuperblock@VWinLockType@HL@@$0BAAA@VSmallHeap@@@@$07$0BAAA@@@@@@HL@@QAE@XZ
??0?$Array@$0CB@VDLList@HL@@@HL@@QAE@XZ
??0?$Array@$0CB@VStatistics@@@HL@@QAE@XZ
??0?$Array@$0IA@VPerThreadHoardHeap@@@HL@@QAE@XZ
??0?$BaseHoardManager@V?$HoardSuperblock@VWinLockType@HL@@$0BAAA@VProcessHeap1@@@@$0BAAA@@@QAE@XZ
??0?$BaseHoardManager@V?$HoardSuperblock@VWinLockType@HL@@$0BAAA@VSmallHeap@@@@$0BAAA@@@QAE@XZ
??0?$BumpAlloc@$0EAAA@VMmapAlloc@@@@QAE@XZ
??0?$Check@V?$EmptyClass@V?$HoardSuperblock@VWinLockType@HL@@$0BAAA@VProcessHeap1@@@@$07$0BAAA@@@VMyChecker@1@@@QAE@PAV?$EmptyClass@V?$HoardSuperblock@VWinLockType@HL@@$0BAAA@VProcessHeap1@@@@$07$0BAAA@@@@Z
??0?$Check@V?$EmptyClass@V?$HoardSuperblock@VWinLockType@HL@@$0BAAA@VSmallHeap@@@@$07$0BAAA@@@VMyChecker@1@@@QAE@PAV?$EmptyClass@V?$HoardSuperblock@VWinLockType@HL@@$0BAAA@VSmallHeap@@@@$07$0BAAA@@@@Z
??0?$Check@V?$HoardManager@V?$AlignedSuperblockHeap@VWinLockType@HL@@$0BAAA@@@V?$EmptyHoardManager@V?$HoardSuperblock@VWinLockType@HL@@$0BAAA@VProcessHeap1@@@@$0BAAA@@@V?$HoardSuperblock@VWinLockType@HL@@$0BAAA@VProcessHeap1@@@@$0BAAA@$07VWinLockType@HL@@VbogusThresholdFunctionClass@@VProcessHeap1@@@@VsanityCheck@1@@@QAE@PAV?$HoardManager@V?$AlignedSuperblockHeap@VWinLockType@HL@@$0BAAA@@@V?$EmptyHoardManager@V?$HoardSuperblock@VWinLockType@HL@@$0BAAA@VProcessHeap1@@@@$0BAAA@@@V?$HoardSuperblock@VWinLockType@HL@@$0BAAA@VProcessHeap1@@@@$0BAAA@$07VWinLockType@HL@@VbogusThresholdFunctionClass@@VProcessHeap1@@@@@Z
??0?$Check@V?$HoardManager@V?$AlignedSuperblockHeap@VWinLockType@HL@@$0BAAA@@@VProcessHeap@@V?$HoardSuperblock@VWinLockType@HL@@$0BAAA@VSmallHeap@@@@$0BAAA@$07VWinLockType@HL@@VhoardThresholdFunctionClass@@VSmallHeap@@@@VsanityCheck@1@@@QAE@PAV?$HoardManager@V?$AlignedSuperblockHeap@VWinLockType@HL@@$0BAAA@@@VProcessHeap@@V?$HoardSuperblock@VWinLockType@HL@@$0BAAA@VSmallHeap@@@@$0BAAA@$07VWinLockType@HL@@VhoardThresholdFunctionClass@@VSmallHeap@@@@@Z
??0?$Check@V?$Superblock@V?$AddLockSuperblockHeader@VWinLockType@HL@@VNoHeader@@$0BAAA@V?$HoardSuperblock@VWinLockType@HL@@$0BAAA@VSmallHeap@@@@VSmallHeap@@@@$0BAAA@@@VMyChecker@1@@@QAE@PAV?$Superblock@V?$AddLockSuperblockHeader@VWinLockType@HL@@VNoHeader@@$0BAAA@V?$HoardSuperblock@VWinLockType@HL@@$0BAAA@VSmallHeap@@@@VSmallHeap@@@@$0BAAA@@@@Z
??0?$ConformantHeap@V?$HoardManager@V?$AlignedSuperblockHeap@VWinLockType@HL@@$0BAAA@@@V?$EmptyHoardManager@V?$HoardSuperblock@VWinLockType@HL@@$0BAAA@VProcessHeap1@@@@$0BAAA@@@V?$HoardSuperblock@VWinLockType@HL@@$0BAAA@VProcessHeap1@@@@$0BAAA@$07VWinLockType@HL@@VbogusThresholdFunctionClass@@VProcessHeap1@@@@@@QAE@XZ
??0?$ConformantHeap@V?$LockedHeap@VWinLockType@HL@@V?$FixedRequestHeap@$0BAAA@V?$AlignedMmap@$0BAAA@@@@@@HL@@@@QAE@XZ
??0?$EmptyClass@V?$HoardSuperblock@VWinLockType@HL@@$0BAAA@VProcessHeap1@@@@$07$0BAAA@@@QAE@XZ
??0?$EmptyClass@V?$HoardSuperblock@VWinLockType@HL@@$0BAAA@VSmallHeap@@@@$07$0BAAA@@@QAE@XZ
??0?$EmptyHoardManager@V?$HoardSuperblock@VWinLockType@HL@@$0BAAA@VProcessHeap1@@@@$0BAAA@@@QAE@XZ
??0?$FreelistHeap@V?$BumpAlloc@$0EAAA@VMmapAlloc@@@@@HL@@QAE@XZ
??0?$Guard@VSmallHeap@@@HL@@QAE@AAVSmallHeap@@@Z
??0?$Guard@VWinLockType@HL@@@HL@@QAE@AAVWinLockType@1@@Z
??0?$HeapManager@VWinLockType@HL@@V?$HoardHeap@$0EAA@$0IA@@@@@QAE@XZ
??0?$HoardHeap@$0EAA@$0IA@@@QAE@XZ
??0?$HoardManager@V?$AlignedSuperblockHeap@VWinLockType@HL@@$0BAAA@@@V?$EmptyHoardManager@V?$HoardSuperblock@VWinLockType@HL@@$0BAAA@VProcessHeap1@@@@$0BAAA@@@V?$HoardSuperblock@VWinLockType@HL@@$0BAAA@VProcessHeap1@@@@$0BAAA@$07VWinLockType@HL@@VbogusThresholdFunctionClass@@VProcessHeap1@@@@QAE@XZ
??0?$HoardManager@V?$AlignedSuperblockHeap@VWinLockType@HL@@$0BAAA@@@VProcessHeap@@V?$HoardSuperblock@VWinLockType@HL@@$0BAAA@VSmallHeap@@@@$0BAAA@$07VWinLockType@HL@@VhoardThresholdFunctionClass@@VSmallHeap@@@@QAE@XZ
??0?$HoardSuperblock@VWinLockType@HL@@$0BAAA@VSmallHeap@@@@QAE@I@Z
??0?$HybridHeap@$0PLI@V?$ThreadPoolHeap@$0EAA@$0IA@VPerThreadHoardHeap@@@@VBigHeap@@@HL@@QAE@XZ
??0?$IgnoreInvalidFree@V?$ANSIWrapper@V?$HybridHeap@$0PLI@V?$ThreadPoolHeap@$0EAA@$0IA@VPerThreadHoardHeap@@@@VBigHeap@@@HL@@@HL@@@@QAE@XZ
??0?$LockMallocHeap@VSmallHeap@@@@QAE@XZ
??0?$LockedHeap@VWinLockType@HL@@V?$FixedRequestHeap@$0BAAA@V?$AlignedMmap@$0BAAA@@@@@@HL@@QAE@XZ
??0?$LockedHeap@VWinLockType@HL@@VBigHeapSuper@@@HL@@QAE@XZ
??0?$ManageOneSuperblock@V?$EmptyClass@V?$HoardSuperblock@VWinLockType@HL@@$0BAAA@VProcessHeap1@@@@$07$0BAAA@@@@@QAE@XZ
??0?$ManageOneSuperblock@V?$EmptyClass@V?$HoardSuperblock@VWinLockType@HL@@$0BAAA@VSmallHeap@@@@$07$0BAAA@@@@@QAE@XZ
??0?$OwnerHeader@V?$AddLock@VWinLockType@HL@@VNoHeader@@@@V?$HoardSuperblock@VWinLockType@HL@@$0BAAA@VBigHeapSuper@@@@VBigHeapSuper@@@@QAE@I@Z
??0?$OwnerHeader@V?$AddLock@VWinLockType@HL@@VNoHeader@@@@V?$HoardSuperblock@VWinLockType@HL@@$0BAAA@VSmallHeap@@@@VSmallHeap@@@@QAE@I@Z
??0?$RedirectFree@V?$LockMallocHeap@VSmallHeap@@@@V?$HoardSuperblock@VWinLockType@HL@@$0BAAA@VSmallHeap@@@@$0BAAA@@@QAE@XZ
??0?$STLAllocator@U?$pair@QBXI@std@@VSourceHeap@?$AlignedMmapInstance@$0BAAA@@@@HL@@QAE@ABV01@@Z
??0?$STLAllocator@U?$pair@QBXI@std@@VSourceHeap@?$AlignedMmapInstance@$0BAAA@@@@HL@@QAE@XZ
??0?$Superblock@V?$AddLockSuperblockHeader@VWinLockType@HL@@VNoHeader@@$0BAAA@V?$HoardSuperblock@VWinLockType@HL@@$0BAAA@VSmallHeap@@@@VSmallHeap@@@@$0BAAA@@@QAE@I@Z
??0?$SuperblockHeader@V?$AddLockSuperblockHeader@VWinLockType@HL@@VNoHeader@@$0BAAA@V?$HoardSuperblock@VWinLockType@HL@@$0BAAA@VBigHeapSuper@@@@VBigHeapSuper@@@@@@QAE@II@Z
??0?$SuperblockHeader@V?$AddLockSuperblockHeader@VWinLockType@HL@@VNoHeader@@$0BAAA@V?$HoardSuperblock@VWinLockType@HL@@$0BAAA@VSmallHeap@@@@VSmallHeap@@@@@@QAE@II@Z
??0?$ThreadLocalAllocationBuffer@$0CB@$1?getSizeClass@?$bins@VNoHeader@@$0BAAA@@HL@@SAHI@Z$1?getClassSize@23@SAIH@Z$0IA@$0BAAAA@V?$HoardSuperblock@VWinLockType@HL@@$0BAAA@VSmallHeap@@@@$0BAAA@VHoardHeapType@@@@QAE@PAVHoardHeapType@@@Z
??0?$ThreadPoolHeap@$0EAA@$0IA@VPerThreadHoardHeap@@@@QAE@XZ
??0?$_Tmap_traits@PBXIU?$less@PBX@std@@V?$CustomAllocator@U?$pair@PBXI@std@@@?$AlignedMmapInstance@$0BAAA@@@$0A@@std@@QAE@U?$less@PBX@1@@Z
??0?$_Tree@V?$_Tmap_traits@PBXIU?$less@PBX@std@@V?$CustomAllocator@U?$pair@PBXI@std@@@?$AlignedMmapInstance@$0BAAA@@@$0A@@std@@@std@@QAE@ABU?$less@PBX@1@ABV?$STLAllocator@U?$pair@QBXI@std@@VSourceHeap@?$AlignedMmapInstance@$0BAAA@@@@HL@@@Z
??0?$_Tree_nod@V?$_Tmap_traits@PBXIU?$less@PBX@std@@V?$CustomAllocator@U?$pair@PBXI@std@@@?$AlignedMmapInstance@$0BAAA@@@$0A@@std@@@std@@IAE@ABU?$less@PBX@1@V?$STLAllocator@U?$pair@QBXI@std@@VSourceHeap@?$AlignedMmapInstance@$0BAAA@@@@HL@@@Z
??0?$_Tree_ptr@V?$_Tmap_traits@PBXIU?$less@PBX@std@@V?$CustomAllocator@U?$pair@PBXI@std@@@?$AlignedMmapInstance@$0BAAA@@@$0A@@std@@@std@@IAE@ABU?$less@PBX@1@V?$STLAllocator@U?$pair@QBXI@std@@VSourceHeap@?$AlignedMmapInstance@$0BAAA@@@@HL@@@Z
??0?$_Tree_val@V?$_Tmap_traits@PBXIU?$less@PBX@std@@V?$CustomAllocator@U?$pair@PBXI@std@@@?$AlignedMmapInstance@$0BAAA@@@$0A@@std@@@std@@IAE@ABU?$less@PBX@1@V?$STLAllocator@U?$pair@QBXI@std@@VSourceHeap@?$AlignedMmapInstance@$0BAAA@@@@HL@@@Z
??0?$map@PBXIU?$less@PBX@std@@V?$CustomAllocator@U?$pair@PBXI@std@@@?$AlignedMmapInstance@$0BAAA@@@@std@@QAE@XZ
??0?$pair@QBXI@std@@QAE@ABQBXABI@Z
??0?$pair@Viterator@?$_Tree@V?$_Tmap_traits@PBXIU?$less@PBX@std@@V?$CustomAllocator@U?$pair@PBXI@std@@@?$AlignedMmapInstance@$0BAAA@@@$0A@@std@@@std@@_N@std@@QAE@ABViterator@?$_Tree@V?$_Tmap_traits@PBXIU?$less@PBX@std@@V?$CustomAllocator@U?$pair@PBXI@std@@@?$AlignedMmapInstance@$0BAAA@@@$0A@@std@@@1@AB_N@Z
??0BigHeap@@QAE@XZ
??0DLList@HL@@QAE@XZ
??0Entry@FreeSLList@@QAE@XZ
??0FreeSLList@@QAE@XZ
??0HoardHeapType@@QAE@XZ
??0NoHeader@@QAE@I@Z
??0PerThreadHoardHeap@@QAE@XZ
??0ProcessHeap1@@QAE@XZ
??0ProcessHeap@@QAE@XZ
??0SmallHeap@@QAE@XZ
??0SourceHeap@?$AlignedMmapInstance@$0BAAA@@@QAE@XZ
??0Statistics@@QAE@XZ
??0WinLockType@HL@@QAE@XZ
??0_Node@?$_Tree_nod@V?$_Tmap_traits@PBXIU?$less@PBX@std@@V?$CustomAllocator@U?$pair@PBXI@std@@@?$AlignedMmapInstance@$0BAAA@@@$0A@@std@@@std@@QAE@PAU012@00ABU?$pair@QBXI@2@D@Z
??0const_iterator@?$_Tree@V?$_Tmap_traits@PBXIU?$less@PBX@std@@V?$CustomAllocator@U?$pair@PBXI@std@@@?$AlignedMmapInstance@$0BAAA@@@$0A@@std@@@std@@QAE@PAU_Node@?$_Tree_nod@V?$_Tmap_traits@PBXIU?$less@PBX@std@@V?$CustomAllocator@U?$pair@PBXI@std@@@?$AlignedMmapInstance@$0BAAA@@@$0A@@std@@@2@@Z
??0const_iterator@?$_Tree@V?$_Tmap_traits@PBXIU?$less@PBX@std@@V?$CustomAllocator@U?$pair@PBXI@std@@@?$AlignedMmapInstance@$0BAAA@@@$0A@@std@@@std@@QAE@XZ
??0iterator@?$_Tree@V?$_Tmap_traits@PBXIU?$less@PBX@std@@V?$CustomAllocator@U?$pair@PBXI@std@@@?$AlignedMmapInstance@$0BAAA@@@$0A@@std@@@std@@QAE@PAU_Node@?$_Tree_nod@V?$_Tmap_traits@PBXIU?$less@PBX@std@@V?$CustomAllocator@U?$pair@PBXI@std@@@?$AlignedMmapInstance@$0BAAA@@@$0A@@std@@@2@@Z
??0iterator@?$_Tree@V?$_Tmap_traits@PBXIU?$less@PBX@std@@V?$CustomAllocator@U?$pair@PBXI@std@@@?$AlignedMmapInstance@$0BAAA@@@$0A@@std@@@std@@QAE@XZ
??0length_error@std@@QAE@ABV01@@Z
??0length_error@std@@QAE@ABV?$basic_string@DU?$char_traits@D@std@@V?$allocator@D@2@@1@@Z
??0logic_error@std@@QAE@ABV01@@Z
??0logic_error@std@@QAE@ABV?$basic_string@DU?$char_traits@D@std@@V?$allocator@D@2@@1@@Z
??0out_of_range@std@@QAE@ABV01@@Z
??0out_of_range@std@@QAE@ABV?$basic_string@DU?$char_traits@D@std@@V?$allocator@D@2@@1@@Z
??1?$ANSIWrapper@V?$HybridHeap@$0PLI@V?$ThreadPoolHeap@$0EAA@$0IA@VPerThreadHoardHeap@@@@VBigHeap@@@HL@@@HL@@QAE@XZ
??1?$AddLock@VWinLockType@HL@@VNoHeader@@@@UAE@XZ
??1?$AddLockSuperblockHeader@VWinLockType@HL@@VNoHeader@@$0BAAA@V?$HoardSuperblock@VWinLockType@HL@@$0BAAA@VBigHeapSuper@@@@VBigHeapSuper@@@@UAE@XZ
??1?$AddLockSuperblockHeader@VWinLockType@HL@@VNoHeader@@$0BAAA@V?$HoardSuperblock@VWinLockType@HL@@$0BAAA@VSmallHeap@@@@VSmallHeap@@@@UAE@XZ
??1?$AlignedMmapInstance@$0BAAA@@@QAE@XZ
??1?$AlignedSuperblockHeap@VWinLockType@HL@@$0BAAA@@@QAE@XZ
??1?$AlignedSuperblockHeapHelper@VWinLockType@HL@@$0BAAA@@@QAE@XZ
??1?$Array@$0IA@VPerThreadHoardHeap@@@HL@@QAE@XZ
??1?$BaseHoardManager@V?$HoardSuperblock@VWinLockType@HL@@$0BAAA@VProcessHeap1@@@@$0BAAA@@@UAE@XZ
??1?$BaseHoardManager@V?$HoardSuperblock@VWinLockType@HL@@$0BAAA@VSmallHeap@@@@$0BAAA@@@UAE@XZ
??1?$Check@V?$EmptyClass@V?$HoardSuperblock@VWinLockType@HL@@$0BAAA@VProcessHeap1@@@@$07$0BAAA@@@VMyChecker@1@@@QAE@XZ
??1?$Check@V?$EmptyClass@V?$HoardSuperblock@VWinLockType@HL@@$0BAAA@VSmallHeap@@@@$07$0BAAA@@@VMyChecker@1@@@QAE@XZ
??1?$Check@V?$HoardManager@V?$AlignedSuperblockHeap@VWinLockType@HL@@$0BAAA@@@V?$EmptyHoardManager@V?$HoardSuperblock@VWinLockType@HL@@$0BAAA@VProcessHeap1@@@@$0BAAA@@@V?$HoardSuperblock@VWinLockType@HL@@$0BAAA@VProcessHeap1@@@@$0BAAA@$07VWinLockType@HL@@VbogusThresholdFunctionClass@@VProcessHeap1@@@@VsanityCheck@1@@@QAE@XZ
??1?$Check@V?$HoardManager@V?$AlignedSuperblockHeap@VWinLockType@HL@@$0BAAA@@@VProcessHeap@@V?$HoardSuperblock@VWinLockType@HL@@$0BAAA@VSmallHeap@@@@$0BAAA@$07VWinLockType@HL@@VhoardThresholdFunctionClass@@VSmallHeap@@@@VsanityCheck@1@@@QAE@XZ
??1?$Check@V?$Superblock@V?$AddLockSuperblockHeader@VWinLockType@HL@@VNoHeader@@$0BAAA@V?$HoardSuperblock@VWinLockType@HL@@$0BAAA@VSmallHeap@@@@VSmallHeap@@@@$0BAAA@@@VMyChecker@1@@@QAE@XZ
??1?$ConformantHeap@V?$HoardManager@V?$AlignedSuperblockHeap@VWinLockType@HL@@$0BAAA@@@V?$EmptyHoardManager@V?$HoardSuperblock@VWinLockType@HL@@$0BAAA@VProcessHeap1@@@@$0BAAA@@@V?$HoardSuperblock@VWinLockType@HL@@$0BAAA@VProcessHeap1@@@@$0BAAA@$07VWinLockType@HL@@VbogusThresholdFunctionClass@@VProcessHeap1@@@@@@UAE@XZ
??1?$ConformantHeap@V?$LockedHeap@VWinLockType@HL@@V?$FixedRequestHeap@$0BAAA@V?$AlignedMmap@$0BAAA@@@@@@HL@@@@QAE@XZ
??1?$EmptyHoardManager@V?$HoardSuperblock@VWinLockType@HL@@$0BAAA@VProcessHeap1@@@@$0BAAA@@@UAE@XZ
??1?$Guard@VSmallHeap@@@HL@@QAE@XZ
??1?$Guard@VWinLockType@HL@@@HL@@QAE@XZ
??1?$HeapManager@VWinLockType@HL@@V?$HoardHeap@$0EAA@$0IA@@@@@QAE@XZ
??1?$HoardHeap@$0EAA@$0IA@@@QAE@XZ
??1?$HoardManager@V?$AlignedSuperblockHeap@VWinLockType@HL@@$0BAAA@@@V?$EmptyHoardManager@V?$HoardSuperblock@VWinLockType@HL@@$0BAAA@VProcessHeap1@@@@$0BAAA@@@V?$HoardSuperblock@VWinLockType@HL@@$0BAAA@VProcessHeap1@@@@$0BAAA@$07VWinLockType@HL@@VbogusThresholdFunctionClass@@VProcessHeap1@@@@UAE@XZ
??1?$HoardManager@V?$AlignedSuperblockHeap@VWinLockType@HL@@$0BAAA@@@VProcessHeap@@V?$HoardSuperblock@VWinLockType@HL@@$0BAAA@VSmallHeap@@@@$0BAAA@$07VWinLockType@HL@@VhoardThresholdFunctionClass@@VSmallHeap@@@@UAE@XZ
??1?$HybridHeap@$0PLI@V?$ThreadPoolHeap@$0EAA@$0IA@VPerThreadHoardHeap@@@@VBigHeap@@@HL@@QAE@XZ
??1?$IgnoreInvalidFree@V?$ANSIWrapper@V?$HybridHeap@$0PLI@V?$ThreadPoolHeap@$0EAA@$0IA@VPerThreadHoardHeap@@@@VBigHeap@@@HL@@@HL@@@@QAE@XZ
??1?$LockMallocHeap@VSmallHeap@@@@UAE@XZ
??1?$LockedHeap@VWinLockType@HL@@V?$FixedRequestHeap@$0BAAA@V?$AlignedMmap@$0BAAA@@@@@@HL@@QAE@XZ
??1?$LockedHeap@VWinLockType@HL@@VBigHeapSuper@@@HL@@QAE@XZ
??1?$OwnerHeader@V?$AddLock@VWinLockType@HL@@VNoHeader@@@@V?$HoardSuperblock@VWinLockType@HL@@$0BAAA@VBigHeapSuper@@@@VBigHeapSuper@@@@UAE@XZ
??1?$OwnerHeader@V?$AddLock@VWinLockType@HL@@VNoHeader@@@@V?$HoardSuperblock@VWinLockType@HL@@$0BAAA@VSmallHeap@@@@VSmallHeap@@@@UAE@XZ
??1?$RedirectFree@V?$LockMallocHeap@VSmallHeap@@@@V?$HoardSuperblock@VWinLockType@HL@@$0BAAA@VSmallHeap@@@@$0BAAA@@@QAE@XZ
??1?$STLAllocator@PAU_Node@?$_Tree_nod@V?$_Tmap_traits@PBXIU?$less@PBX@std@@V?$CustomAllocator@U?$pair@PBXI@std@@@?$AlignedMmapInstance@$0BAAA@@@$0A@@std@@@std@@VSourceHeap@?$AlignedMmapInstance@$0BAAA@@@@HL@@UAE@XZ
??1?$STLAllocator@U?$pair@QBXI@std@@VSourceHeap@?$AlignedMmapInstance@$0BAAA@@@@HL@@UAE@XZ
??1?$STLAllocator@U_Node@?$_Tree_nod@V?$_Tmap_traits@PBXIU?$less@PBX@std@@V?$CustomAllocator@U?$pair@PBXI@std@@@?$AlignedMmapInstance@$0BAAA@@@$0A@@std@@@std@@VSourceHeap@?$AlignedMmapInstance@$0BAAA@@@@HL@@UAE@XZ
??1?$Superblock@V?$AddLockSuperblockHeader@VWinLockType@HL@@VNoHeader@@$0BAAA@V?$HoardSuperblock@VWinLockType@HL@@$0BAAA@VSmallHeap@@@@VSmallHeap@@@@$0BAAA@@@UAE@XZ
??1?$SuperblockHeader@V?$AddLockSuperblockHeader@VWinLockType@HL@@VNoHeader@@$0BAAA@V?$HoardSuperblock@VWinLockType@HL@@$0BAAA@VSmallHeap@@@@VSmallHeap@@@@@@UAE@XZ
??1?$ThreadPoolHeap@$0EAA@$0IA@VPerThreadHoardHeap@@@@QAE@XZ
??1?$_Tree@V?$_Tmap_traits@PBXIU?$less@PBX@std@@V?$CustomAllocator@U?$pair@PBXI@std@@@?$AlignedMmapInstance@$0BAAA@@@$0A@@std@@@std@@QAE@XZ
??1?$_Tree_nod@V?$_Tmap_traits@PBXIU?$less@PBX@std@@V?$CustomAllocator@U?$pair@PBXI@std@@@?$AlignedMmapInstance@$0BAAA@@@$0A@@std@@@std@@QAE@XZ
??1?$_Tree_ptr@V?$_Tmap_traits@PBXIU?$less@PBX@std@@V?$CustomAllocator@U?$pair@PBXI@std@@@?$AlignedMmapInstance@$0BAAA@@@$0A@@std@@@std@@QAE@XZ
??1?$_Tree_val@V?$_Tmap_traits@PBXIU?$less@PBX@std@@V?$CustomAllocator@U?$pair@PBXI@std@@@?$AlignedMmapInstance@$0BAAA@@@$0A@@std@@@std@@QAE@XZ
??1?$map@PBXIU?$less@PBX@std@@V?$CustomAllocator@U?$pair@PBXI@std@@@?$AlignedMmapInstance@$0BAAA@@@@std@@QAE@XZ
??1BigHeap@@QAE@XZ
??1NoHeader@@UAE@XZ
??1PerThreadHoardHeap@@QAE@XZ
??1SmallHeap@@UAE@XZ
??1WinLockType@HL@@QAE@XZ
??1length_error@std@@UAE@XZ
??1logic_error@std@@UAE@XZ
??1out_of_range@std@@UAE@XZ
??2@YAPAXI@Z
??2@YAPAXIABUnothrow_t@std@@@Z
??2@YAPAXIPAX@Z
??3@YAXPAX@Z
??8const_iterator@?$_Tree@V?$_Tmap_traits@PBXIU?$less@PBX@std@@V?$CustomAllocator@U?$pair@PBXI@std@@@?$AlignedMmapInstance@$0BAAA@@@$0A@@std@@@std@@QBE_NABV012@@Z
??9const_iterator@?$_Tree@V?$_Tmap_traits@PBXIU?$less@PBX@std@@V?$CustomAllocator@U?$pair@PBXI@std@@@?$AlignedMmapInstance@$0BAAA@@@$0A@@std@@@std@@QBE_NABV012@@Z
??A?$map@PBXIU?$less@PBX@std@@V?$CustomAllocator@U?$pair@PBXI@std@@@?$AlignedMmapInstance@$0BAAA@@@@std@@QAEAAIABQBX@Z
??Dconst_iterator@?$_Tree@V?$_Tmap_traits@PBXIU?$less@PBX@std@@V?$CustomAllocator@U?$pair@PBXI@std@@@?$AlignedMmapInstance@$0BAAA@@@$0A@@std@@@std@@QBEABU?$pair@QBXI@2@XZ
??Diterator@?$_Tree@V?$_Tmap_traits@PBXIU?$less@PBX@std@@V?$CustomAllocator@U?$pair@PBXI@std@@@?$AlignedMmapInstance@$0BAAA@@@$0A@@std@@@std@@QBEAAU?$pair@QBXI@2@XZ
??Econst_iterator@?$_Tree@V?$_Tmap_traits@PBXIU?$less@PBX@std@@V?$CustomAllocator@U?$pair@PBXI@std@@@?$AlignedMmapInstance@$0BAAA@@@$0A@@std@@@std@@QAEAAV012@XZ
??Eiterator@?$_Tree@V?$_Tmap_traits@PBXIU?$less@PBX@std@@V?$CustomAllocator@U?$pair@PBXI@std@@@?$AlignedMmapInstance@$0BAAA@@@$0A@@std@@@std@@QAE?AV012@H@Z
??Eiterator@?$_Tree@V?$_Tmap_traits@PBXIU?$less@PBX@std@@V?$CustomAllocator@U?$pair@PBXI@std@@@?$AlignedMmapInstance@$0BAAA@@@$0A@@std@@@std@@QAEAAV012@XZ
??Fconst_iterator@?$_Tree@V?$_Tmap_traits@PBXIU?$less@PBX@std@@V?$CustomAllocator@U?$pair@PBXI@std@@@?$AlignedMmapInstance@$0BAAA@@@$0A@@std@@@std@@QAEAAV012@XZ
??Fiterator@?$_Tree@V?$_Tmap_traits@PBXIU?$less@PBX@std@@V?$CustomAllocator@U?$pair@PBXI@std@@@?$AlignedMmapInstance@$0BAAA@@@$0A@@std@@@std@@QAEAAV012@XZ
??R?$Array@$09PAV?$HoardSuperblock@VWinLockType@HL@@$0BAAA@VProcessHeap1@@@@@HL@@QAEAAPAV?$HoardSuperblock@VWinLockType@HL@@$0BAAA@VProcessHeap1@@@@H@Z
??R?$Array@$09PAV?$HoardSuperblock@VWinLockType@HL@@$0BAAA@VSmallHeap@@@@@HL@@QAEAAPAV?$HoardSuperblock@VWinLockType@HL@@$0BAAA@VSmallHeap@@@@H@Z
??R?$Array@$0CB@V?$ManageOneSuperblock@V?$EmptyClass@V?$HoardSuperblock@VWinLockType@HL@@$0BAAA@VProcessHeap1@@@@$07$0BAAA@@@@@@HL@@QAEAAV?$ManageOneSuperblock@V?$EmptyClass@V?$HoardSuperblock@VWinLockType@HL@@$0BAAA@VProcessHeap1@@@@$07$0BAAA@@@@@H@Z
??R?$Array@$0CB@V?$ManageOneSuperblock@V?$EmptyClass@V?$HoardSuperblock@VWinLockType@HL@@$0BAAA@VSmallHeap@@@@$07$0BAAA@@@@@@HL@@QAEAAV?$ManageOneSuperblock@V?$EmptyClass@V?$HoardSuperblock@VWinLockType@HL@@$0BAAA@VSmallHeap@@@@$07$0BAAA@@@@@H@Z
??R?$Array@$0CB@VDLList@HL@@@HL@@QAEAAVDLList@1@H@Z
??R?$Array@$0CB@VStatistics@@@HL@@QAEAAVStatistics@@H@Z
??R?$Array@$0EAA@H@HL@@QAEAAHH@Z
??R?$Array@$0EAA@H@HL@@QBEABHH@Z
??R?$Array@$0IA@H@HL@@QAEAAHH@Z
??R?$Array@$0IA@H@HL@@QBEABHH@Z
??R?$Array@$0IA@VPerThreadHoardHeap@@@HL@@QAEAAVPerThreadHoardHeap@@H@Z
??R?$ExactlyOne@V?$AlignedMmapInstance@$0BAAA@@@@@QAEAAV?$AlignedMmapInstance@$0BAAA@@@XZ
??R?$less@PBX@std@@QBE_NABQBX0@Z
??_G?$AddLock@VWinLockType@HL@@VNoHeader@@@@UAEPAXI@Z
??_G?$AddLockSuperblockHeader@VWinLockType@HL@@VNoHeader@@$0BAAA@V?$HoardSuperblock@VWinLockType@HL@@$0BAAA@VBigHeapSuper@@@@VBigHeapSuper@@@@UAEPAXI@Z
??_G?$AddLockSuperblockHeader@VWinLockType@HL@@VNoHeader@@$0BAAA@V?$HoardSuperblock@VWinLockType@HL@@$0BAAA@VSmallHeap@@@@VSmallHeap@@@@UAEPAXI@Z
??_G?$BaseHoardManager@V?$HoardSuperblock@VWinLockType@HL@@$0BAAA@VProcessHeap1@@@@$0BAAA@@@UAEPAXI@Z
??_G?$BaseHoardManager@V?$HoardSuperblock@VWinLockType@HL@@$0BAAA@VSmallHeap@@@@$0BAAA@@@UAEPAXI@Z
??_G?$ConformantHeap@V?$HoardManager@V?$AlignedSuperblockHeap@VWinLockType@HL@@$0BAAA@@@V?$EmptyHoardManager@V?$HoardSuperblock@VWinLockType@HL@@$0BAAA@VProcessHeap1@@@@$0BAAA@@@V?$HoardSuperblock@VWinLockType@HL@@$0BAAA@VProcessHeap1@@@@$0BAAA@$07VWinLockType@HL@@VbogusThresholdFunctionClass@@VProcessHeap1@@@@@@UAEPAXI@Z
??_G?$EmptyHoardManager@V?$HoardSuperblock@VWinLockType@HL@@$0BAAA@VProcessHeap1@@@@$0BAAA@@@UAEPAXI@Z
??_G?$HoardManager@V?$AlignedSuperblockHeap@VWinLockType@HL@@$0BAAA@@@V?$EmptyHoardManager@V?$HoardSuperblock@VWinLockType@HL@@$0BAAA@VProcessHeap1@@@@$0BAAA@@@V?$HoardSuperblock@VWinLockType@HL@@$0BAAA@VProcessHeap1@@@@$0BAAA@$07VWinLockType@HL@@VbogusThresholdFunctionClass@@VProcessHeap1@@@@UAEPAXI@Z
??_G?$HoardManager@V?$AlignedSuperblockHeap@VWinLockType@HL@@$0BAAA@@@VProcessHeap@@V?$HoardSuperblock@VWinLockType@HL@@$0BAAA@VSmallHeap@@@@$0BAAA@$07VWinLockType@HL@@VhoardThresholdFunctionClass@@VSmallHeap@@@@UAEPAXI@Z
??_G?$HoardSuperblock@VWinLockType@HL@@$0BAAA@VSmallHeap@@@@UAEPAXI@Z
??_G?$LockMallocHeap@VSmallHeap@@@@UAEPAXI@Z
??_G?$OwnerHeader@V?$AddLock@VWinLockType@HL@@VNoHeader@@@@V?$HoardSuperblock@VWinLockType@HL@@$0BAAA@VBigHeapSuper@@@@VBigHeapSuper@@@@UAEPAXI@Z
??_G?$OwnerHeader@V?$AddLock@VWinLockType@HL@@VNoHeader@@@@V?$HoardSuperblock@VWinLockType@HL@@$0BAAA@VSmallHeap@@@@VSmallHeap@@@@UAEPAXI@Z
??_G?$STLAllocator@PAU_Node@?$_Tree_nod@V?$_Tmap_traits@PBXIU?$less@PBX@std@@V?$CustomAllocator@U?$pair@PBXI@std@@@?$AlignedMmapInstance@$0BAAA@@@$0A@@std@@@std@@VSourceHeap@?$AlignedMmapInstance@$0BAAA@@@@HL@@UAEPAXI@Z
??_G?$STLAllocator@U?$pair@QBXI@std@@VSourceHeap@?$AlignedMmapInstance@$0BAAA@@@@HL@@UAEPAXI@Z
??_G?$STLAllocator@U_Node@?$_Tree_nod@V?$_Tmap_traits@PBXIU?$less@PBX@std@@V?$CustomAllocator@U?$pair@PBXI@std@@@?$AlignedMmapInstance@$0BAAA@@@$0A@@std@@@std@@VSourceHeap@?$AlignedMmapInstance@$0BAAA@@@@HL@@UAEPAXI@Z
??_G?$Superblock@V?$AddLockSuperblockHeader@VWinLockType@HL@@VNoHeader@@$0BAAA@V?$HoardSuperblock@VWinLockType@HL@@$0BAAA@VSmallHeap@@@@VSmallHeap@@@@$0BAAA@@@UAEPAXI@Z
??_G?$SuperblockHeader@V?$AddLockSuperblockHeader@VWinLockType@HL@@VNoHeader@@$0BAAA@V?$HoardSuperblock@VWinLockType@HL@@$0BAAA@VBigHeapSuper@@@@VBigHeapSuper@@@@@@UAEPAXI@Z
??_G?$SuperblockHeader@V?$AddLockSuperblockHeader@VWinLockType@HL@@VNoHeader@@$0BAAA@V?$HoardSuperblock@VWinLockType@HL@@$0BAAA@VSmallHeap@@@@VSmallHeap@@@@@@UAEPAXI@Z
??_GNoHeader@@UAEPAXI@Z
??_GProcessHeap1@@UAEPAXI@Z
??_GSmallHeap@@UAEPAXI@Z
??_Glength_error@std@@UAEPAXI@Z
??_Glogic_error@std@@UAEPAXI@Z
??_Gout_of_range@std@@UAEPAXI@Z
??_H@YGXPAXIHP6EPAX0@Z@Z
??_I@YGXPAXIHP6EX0@Z@Z
??_U@YAPAXIABUnothrow_t@std@@@Z
??_V@YAXPAX@Z
?_Buynode@?$_Tree@V?$_Tmap_traits@PBXIU?$less@PBX@std@@V?$CustomAllocator@U?$pair@PBXI@std@@@?$AlignedMmapInstance@$0BAAA@@@$0A@@std@@@std@@IAEPAU_Node@?$_Tree_nod@V?$_Tmap_traits@PBXIU?$less@PBX@std@@V?$CustomAllocator@U?$pair@PBXI@std@@@?$AlignedMmapInstance@$0BAAA@@@$0A@@std@@@2@PAU342@00ABU?$pair@QBXI@2@D@Z
?_Buynode@?$_Tree@V?$_Tmap_traits@PBXIU?$less@PBX@std@@V?$CustomAllocator@U?$pair@PBXI@std@@@?$AlignedMmapInstance@$0BAAA@@@$0A@@std@@@std@@IAEPAU_Node@?$_Tree_nod@V?$_Tmap_traits@PBXIU?$less@PBX@std@@V?$CustomAllocator@U?$pair@PBXI@std@@@?$AlignedMmapInstance@$0BAAA@@@$0A@@std@@@2@XZ
?_Color@?$_Tree@V?$_Tmap_traits@PBXIU?$less@PBX@std@@V?$CustomAllocator@U?$pair@PBXI@std@@@?$AlignedMmapInstance@$0BAAA@@@$0A@@std@@@std@@KAAADPAU_Node@?$_Tree_nod@V?$_Tmap_traits@PBXIU?$less@PBX@std@@V?$CustomAllocator@U?$pair@PBXI@std@@@?$AlignedMmapInstance@$0BAAA@@@$0A@@std@@@2@@Z
?_Dec@const_iterator@?$_Tree@V?$_Tmap_traits@PBXIU?$less@PBX@std@@V?$CustomAllocator@U?$pair@PBXI@std@@@?$AlignedMmapInstance@$0BAAA@@@$0A@@std@@@std@@QAEXXZ
?_Erase@?$_Tree@V?$_Tmap_traits@PBXIU?$less@PBX@std@@V?$CustomAllocator@U?$pair@PBXI@std@@@?$AlignedMmapInstance@$0BAAA@@@$0A@@std@@@std@@IAEXPAU_Node@?$_Tree_nod@V?$_Tmap_traits@PBXIU?$less@PBX@std@@V?$CustomAllocator@U?$pair@PBXI@std@@@?$AlignedMmapInstance@$0BAAA@@@$0A@@std@@@2@@Z
?_Inc@const_iterator@?$_Tree@V?$_Tmap_traits@PBXIU?$less@PBX@std@@V?$CustomAllocator@U?$pair@PBXI@std@@@?$AlignedMmapInstance@$0BAAA@@@$0A@@std@@@std@@QAEXXZ
?_Init@?$_Tree@V?$_Tmap_traits@PBXIU?$less@PBX@std@@V?$CustomAllocator@U?$pair@PBXI@std@@@?$AlignedMmapInstance@$0BAAA@@@$0A@@std@@@std@@IAEXXZ
?_Insert@?$_Tree@V?$_Tmap_traits@PBXIU?$less@PBX@std@@V?$CustomAllocator@U?$pair@PBXI@std@@@?$AlignedMmapInstance@$0BAAA@@@$0A@@std@@@std@@IAE?AViterator@12@_NPAU_Node@?$_Tree_nod@V?$_Tmap_traits@PBXIU?$less@PBX@std@@V?$CustomAllocator@U?$pair@PBXI@std@@@?$AlignedMmapInstance@$0BAAA@@@$0A@@std@@@2@ABU?$pair@QBXI@2@@Z
?_Isnil@?$_Tree@V?$_Tmap_traits@PBXIU?$less@PBX@std@@V?$CustomAllocator@U?$pair@PBXI@std@@@?$AlignedMmapInstance@$0BAAA@@@$0A@@std@@@std@@KAAADPAU_Node@?$_Tree_nod@V?$_Tmap_traits@PBXIU?$less@PBX@std@@V?$CustomAllocator@U?$pair@PBXI@std@@@?$AlignedMmapInstance@$0BAAA@@@$0A@@std@@@2@@Z
?_Key@?$_Tree@V?$_Tmap_traits@PBXIU?$less@PBX@std@@V?$CustomAllocator@U?$pair@PBXI@std@@@?$AlignedMmapInstance@$0BAAA@@@$0A@@std@@@std@@KAABQBXPAU_Node@?$_Tree_nod@V?$_Tmap_traits@PBXIU?$less@PBX@std@@V?$CustomAllocator@U?$pair@PBXI@std@@@?$AlignedMmapInstance@$0BAAA@@@$0A@@std@@@2@@Z
?_Kfn@?$_Tmap_traits@PBXIU?$less@PBX@std@@V?$CustomAllocator@U?$pair@PBXI@std@@@?$AlignedMmapInstance@$0BAAA@@@$0A@@std@@SAABQBXABU?$pair@QBXI@2@@Z
?_Lbound@?$_Tree@V?$_Tmap_traits@PBXIU?$less@PBX@std@@V?$CustomAllocator@U?$pair@PBXI@std@@@?$AlignedMmapInstance@$0BAAA@@@$0A@@std@@@std@@IBEPAU_Node@?$_Tree_nod@V?$_Tmap_traits@PBXIU?$less@PBX@std@@V?$CustomAllocator@U?$pair@PBXI@std@@@?$AlignedMmapInstance@$0BAAA@@@$0A@@std@@@2@ABQBX@Z
?_Left@?$_Tree@V?$_Tmap_traits@PBXIU?$less@PBX@std@@V?$CustomAllocator@U?$pair@PBXI@std@@@?$AlignedMmapInstance@$0BAAA@@@$0A@@std@@@std@@KAAAPAU_Node@?$_Tree_nod@V?$_Tmap_traits@PBXIU?$less@PBX@std@@V?$CustomAllocator@U?$pair@PBXI@std@@@?$AlignedMmapInstance@$0BAAA@@@$0A@@std@@@2@PAU342@@Z
?_Lmost@?$_Tree@V?$_Tmap_traits@PBXIU?$less@PBX@std@@V?$CustomAllocator@U?$pair@PBXI@std@@@?$AlignedMmapInstance@$0BAAA@@@$0A@@std@@@std@@IAEAAPAU_Node@?$_Tree_nod@V?$_Tmap_traits@PBXIU?$less@PBX@std@@V?$CustomAllocator@U?$pair@PBXI@std@@@?$AlignedMmapInstance@$0BAAA@@@$0A@@std@@@2@XZ
?_Lrotate@?$_Tree@V?$_Tmap_traits@PBXIU?$less@PBX@std@@V?$CustomAllocator@U?$pair@PBXI@std@@@?$AlignedMmapInstance@$0BAAA@@@$0A@@std@@@std@@IAEXPAU_Node@?$_Tree_nod@V?$_Tmap_traits@PBXIU?$less@PBX@std@@V?$CustomAllocator@U?$pair@PBXI@std@@@?$AlignedMmapInstance@$0BAAA@@@$0A@@std@@@2@@Z
?_Max@?$_Tree@V?$_Tmap_traits@PBXIU?$less@PBX@std@@V?$CustomAllocator@U?$pair@PBXI@std@@@?$AlignedMmapInstance@$0BAAA@@@$0A@@std@@@std@@KAPAU_Node@?$_Tree_nod@V?$_Tmap_traits@PBXIU?$less@PBX@std@@V?$CustomAllocator@U?$pair@PBXI@std@@@?$AlignedMmapInstance@$0BAAA@@@$0A@@std@@@2@PAU342@@Z
?_Min@?$_Tree@V?$_Tmap_traits@PBXIU?$less@PBX@std@@V?$CustomAllocator@U?$pair@PBXI@std@@@?$AlignedMmapInstance@$0BAAA@@@$0A@@std@@@std@@KAPAU_Node@?$_Tree_nod@V?$_Tmap_traits@PBXIU?$less@PBX@std@@V?$CustomAllocator@U?$pair@PBXI@std@@@?$AlignedMmapInstance@$0BAAA@@@$0A@@std@@@2@PAU342@@Z
?_Mynode@const_iterator@?$_Tree@V?$_Tmap_traits@PBXIU?$less@PBX@std@@V?$CustomAllocator@U?$pair@PBXI@std@@@?$AlignedMmapInstance@$0BAAA@@@$0A@@std@@@std@@QBEPAU_Node@?$_Tree_nod@V?$_Tmap_traits@PBXIU?$less@PBX@std@@V?$CustomAllocator@U?$pair@PBXI@std@@@?$AlignedMmapInstance@$0BAAA@@@$0A@@std@@@3@XZ
?_Myval@?$_Tree@V?$_Tmap_traits@PBXIU?$less@PBX@std@@V?$CustomAllocator@U?$pair@PBXI@std@@@?$AlignedMmapInstance@$0BAAA@@@$0A@@std@@@std@@KAAAU?$pair@QBXI@2@PAU_Node@?$_Tree_nod@V?$_Tmap_traits@PBXIU?$less@PBX@std@@V?$CustomAllocator@U?$pair@PBXI@std@@@?$AlignedMmapInstance@$0BAAA@@@$0A@@std@@@2@@Z
?_Parent@?$_Tree@V?$_Tmap_traits@PBXIU?$less@PBX@std@@V?$CustomAllocator@U?$pair@PBXI@std@@@?$AlignedMmapInstance@$0BAAA@@@$0A@@std@@@std@@KAAAPAU_Node@?$_Tree_nod@V?$_Tmap_traits@PBXIU?$less@PBX@std@@V?$CustomAllocator@U?$pair@PBXI@std@@@?$AlignedMmapInstance@$0BAAA@@@$0A@@std@@@2@PAU342@@Z
?_Right@?$_Tree@V?$_Tmap_traits@PBXIU?$less@PBX@std@@V?$CustomAllocator@U?$pair@PBXI@std@@@?$AlignedMmapInstance@$0BAAA@@@$0A@@std@@@std@@KAAAPAU_Node@?$_Tree_nod@V?$_Tmap_traits@PBXIU?$less@PBX@std@@V?$CustomAllocator@U?$pair@PBXI@std@@@?$AlignedMmapInstance@$0BAAA@@@$0A@@std@@@2@PAU342@@Z
?_Rmost@?$_Tree@V?$_Tmap_traits@PBXIU?$less@PBX@std@@V?$CustomAllocator@U?$pair@PBXI@std@@@?$AlignedMmapInstance@$0BAAA@@@$0A@@std@@@std@@IAEAAPAU_Node@?$_Tree_nod@V?$_Tmap_traits@PBXIU?$less@PBX@std@@V?$CustomAllocator@U?$pair@PBXI@std@@@?$AlignedMmapInstance@$0BAAA@@@$0A@@std@@@2@XZ
?_Root@?$_Tree@V?$_Tmap_traits@PBXIU?$less@PBX@std@@V?$CustomAllocator@U?$pair@PBXI@std@@@?$AlignedMmapInstance@$0BAAA@@@$0A@@std@@@std@@IAEAAPAU_Node@?$_Tree_nod@V?$_Tmap_traits@PBXIU?$less@PBX@std@@V?$CustomAllocator@U?$pair@PBXI@std@@@?$AlignedMmapInstance@$0BAAA@@@$0A@@std@@@2@XZ
?_Root@?$_Tree@V?$_Tmap_traits@PBXIU?$less@PBX@std@@V?$CustomAllocator@U?$pair@PBXI@std@@@?$AlignedMmapInstance@$0BAAA@@@$0A@@std@@@std@@IBEAAPAU_Node@?$_Tree_nod@V?$_Tmap_traits@PBXIU?$less@PBX@std@@V?$CustomAllocator@U?$pair@PBXI@std@@@?$AlignedMmapInstance@$0BAAA@@@$0A@@std@@@2@XZ
?_Rrotate@?$_Tree@V?$_Tmap_traits@PBXIU?$less@PBX@std@@V?$CustomAllocator@U?$pair@PBXI@std@@@?$AlignedMmapInstance@$0BAAA@@@$0A@@std@@@std@@IAEXPAU_Node@?$_Tree_nod@V?$_Tmap_traits@PBXIU?$less@PBX@std@@V?$CustomAllocator@U?$pair@PBXI@std@@@?$AlignedMmapInstance@$0BAAA@@@$0A@@std@@@2@@Z
?_Tidy@?$_Tree@V?$_Tmap_traits@PBXIU?$less@PBX@std@@V?$CustomAllocator@U?$pair@PBXI@std@@@?$AlignedMmapInstance@$0BAAA@@@$0A@@std@@@std@@IAEXXZ
?addStatsSuperblock@?$HoardManager@V?$AlignedSuperblockHeap@VWinLockType@HL@@$0BAAA@@@V?$EmptyHoardManager@V?$HoardSuperblock@VWinLockType@HL@@$0BAAA@VProcessHeap1@@@@$0BAAA@@@V?$HoardSuperblock@VWinLockType@HL@@$0BAAA@VProcessHeap1@@@@$0BAAA@$07VWinLockType@HL@@VbogusThresholdFunctionClass@@VProcessHeap1@@@@AAEXPAV?$HoardSuperblock@VWinLockType@HL@@$0BAAA@VProcessHeap1@@@@H@Z
?addStatsSuperblock@?$HoardManager@V?$AlignedSuperblockHeap@VWinLockType@HL@@$0BAAA@@@VProcessHeap@@V?$HoardSuperblock@VWinLockType@HL@@$0BAAA@VSmallHeap@@@@$0BAAA@$07VWinLockType@HL@@VhoardThresholdFunctionClass@@VSmallHeap@@@@AAEXPAV?$HoardSuperblock@VWinLockType@HL@@$0BAAA@VSmallHeap@@@@H@Z
?align@?$ANSIWrapper@V?$HybridHeap@$0PLI@V?$ThreadPoolHeap@$0EAA@$0IA@VPerThreadHoardHeap@@@@VBigHeap@@@HL@@@HL@@CAII@Z
?align@?$AlignedMmapInstance@$0BAAA@@@CAPADPAD@Z
?allocate@?$STLAllocator@U_Node@?$_Tree_nod@V?$_Tmap_traits@PBXIU?$less@PBX@std@@V?$CustomAllocator@U?$pair@PBXI@std@@@?$AlignedMmapInstance@$0BAAA@@@$0A@@std@@@std@@VSourceHeap@?$AlignedMmapInstance@$0BAAA@@@@HL@@QAEPAU_Node@?$_Tree_nod@V?$_Tmap_traits@PBXIU?$less@PBX@std@@V?$CustomAllocator@U?$pair@PBXI@std@@@?$AlignedMmapInstance@$0BAAA@@@$0A@@std@@@std@@IPBX@Z
?begin@?$_Tree@V?$_Tmap_traits@PBXIU?$less@PBX@std@@V?$CustomAllocator@U?$pair@PBXI@std@@@?$AlignedMmapInstance@$0BAAA@@@$0A@@std@@@std@@QAE?AViterator@12@XZ
?chooseZero@?$HeapManager@VWinLockType@HL@@V?$HoardHeap@$0EAA@$0IA@@@@@QAEXXZ
?clear@?$ThreadLocalAllocationBuffer@$0CB@$1?getSizeClass@?$bins@VNoHeader@@$0BAAA@@HL@@SAHI@Z$1?getClassSize@23@SAIH@Z$0IA@$0BAAAA@V?$HoardSuperblock@VWinLockType@HL@@$0BAAA@VSmallHeap@@@@$0BAAA@VHoardHeapType@@@@QAEXXZ
?clear@?$_Tree@V?$_Tmap_traits@PBXIU?$less@PBX@std@@V?$CustomAllocator@U?$pair@PBXI@std@@@?$AlignedMmapInstance@$0BAAA@@@$0A@@std@@@std@@QAEXXZ
?clear@DLList@HL@@QAEXXZ
?computeNumProcessors@CPUInfo@HL@@SAHXZ
?construct@?$STLAllocator@PAU_Node@?$_Tree_nod@V?$_Tmap_traits@PBXIU?$less@PBX@std@@V?$CustomAllocator@U?$pair@PBXI@std@@@?$AlignedMmapInstance@$0BAAA@@@$0A@@std@@@std@@VSourceHeap@?$AlignedMmapInstance@$0BAAA@@@@HL@@QAEXPAPAU_Node@?$_Tree_nod@V?$_Tmap_traits@PBXIU?$less@PBX@std@@V?$CustomAllocator@U?$pair@PBXI@std@@@?$AlignedMmapInstance@$0BAAA@@@$0A@@std@@@std@@ABQAU345@@Z
?deallocate@?$STLAllocator@U_Node@?$_Tree_nod@V?$_Tmap_traits@PBXIU?$less@PBX@std@@V?$CustomAllocator@U?$pair@PBXI@std@@@?$AlignedMmapInstance@$0BAAA@@@$0A@@std@@@std@@VSourceHeap@?$AlignedMmapInstance@$0BAAA@@@@HL@@QAEXPAU_Node@?$_Tree_nod@V?$_Tmap_traits@PBXIU?$less@PBX@std@@V?$CustomAllocator@U?$pair@PBXI@std@@@?$AlignedMmapInstance@$0BAAA@@@$0A@@std@@@std@@I@Z
?decObjectsFree@?$SuperblockHeader@V?$AddLockSuperblockHeader@VWinLockType@HL@@VNoHeader@@$0BAAA@V?$HoardSuperblock@VWinLockType@HL@@$0BAAA@VSmallHeap@@@@VSmallHeap@@@@@@QAEXXZ
?decStatsSuperblock@?$HoardManager@V?$AlignedSuperblockHeap@VWinLockType@HL@@$0BAAA@@@VProcessHeap@@V?$HoardSuperblock@VWinLockType@HL@@$0BAAA@VSmallHeap@@@@$0BAAA@$07VWinLockType@HL@@VhoardThresholdFunctionClass@@VSmallHeap@@@@AAEXPAV?$HoardSuperblock@VWinLockType@HL@@$0BAAA@VSmallHeap@@@@H@Z
?destroy@?$STLAllocator@PAU_Node@?$_Tree_nod@V?$_Tmap_traits@PBXIU?$less@PBX@std@@V?$CustomAllocator@U?$pair@PBXI@std@@@?$AlignedMmapInstance@$0BAAA@@@$0A@@std@@@std@@VSourceHeap@?$AlignedMmapInstance@$0BAAA@@@@HL@@QAEXPAPAU_Node@?$_Tree_nod@V?$_Tmap_traits@PBXIU?$less@PBX@std@@V?$CustomAllocator@U?$pair@PBXI@std@@@?$AlignedMmapInstance@$0BAAA@@@$0A@@std@@@std@@@Z
?destroy@?$STLAllocator@U_Node@?$_Tree_nod@V?$_Tmap_traits@PBXIU?$less@PBX@std@@V?$CustomAllocator@U?$pair@PBXI@std@@@?$AlignedMmapInstance@$0BAAA@@@$0A@@std@@@std@@VSourceHeap@?$AlignedMmapInstance@$0BAAA@@@@HL@@QAEXPAU_Node@?$_Tree_nod@V?$_Tmap_traits@PBXIU?$less@PBX@std@@V?$CustomAllocator@U?$pair@PBXI@std@@@?$AlignedMmapInstance@$0BAAA@@@$0A@@std@@@std@@@Z
?end@?$_Tree@V?$_Tmap_traits@PBXIU?$less@PBX@std@@V?$CustomAllocator@U?$pair@PBXI@std@@@?$AlignedMmapInstance@$0BAAA@@@$0A@@std@@@std@@QAE?AViterator@12@XZ
?erase@?$_Tree@V?$_Tmap_traits@PBXIU?$less@PBX@std@@V?$CustomAllocator@U?$pair@PBXI@std@@@?$AlignedMmapInstance@$0BAAA@@@$0A@@std@@@std@@QAE?AViterator@12@V312@0@Z
?erase@?$_Tree@V?$_Tmap_traits@PBXIU?$less@PBX@std@@V?$CustomAllocator@U?$pair@PBXI@std@@@?$AlignedMmapInstance@$0BAAA@@@$0A@@std@@@std@@QAE?AViterator@12@V312@@Z
?find@?$_Tree@V?$_Tmap_traits@PBXIU?$less@PBX@std@@V?$CustomAllocator@U?$pair@PBXI@std@@@?$AlignedMmapInstance@$0BAAA@@@$0A@@std@@@std@@QAE?AViterator@12@ABQBX@Z
?findUnusedHeap@?$HeapManager@VWinLockType@HL@@V?$HoardHeap@$0EAA@$0IA@@@@@QAEHXZ
?free@?$ANSIWrapper@V?$HybridHeap@$0PLI@V?$ThreadPoolHeap@$0EAA@$0IA@VPerThreadHoardHeap@@@@VBigHeap@@@HL@@@HL@@QAEXPAX@Z
?free@?$AddHeaderHeap@V?$HoardSuperblock@VWinLockType@HL@@$0BAAA@VBigHeapSuper@@@@$0BAAA@V?$AlignedMmap@$0BAAA@@@@@QAEXPAX@Z
?free@?$AlignedMmap@$0BAAA@@@QAEXPAX@Z
?free@?$AlignedMmapInstance@$0BAAA@@@QAEXPAX@Z
?free@?$BaseHoardManager@V?$HoardSuperblock@VWinLockType@HL@@$0BAAA@VProcessHeap1@@@@$0BAAA@@@UAEXPAX@Z
?free@?$BaseHoardManager@V?$HoardSuperblock@VWinLockType@HL@@$0BAAA@VSmallHeap@@@@$0BAAA@@@UAEXPAX@Z
?free@?$EmptyHoardManager@V?$HoardSuperblock@VWinLockType@HL@@$0BAAA@VProcessHeap1@@@@$0BAAA@@@UAEXPAX@Z
?free@?$FreelistHeap@V?$BumpAlloc@$0EAAA@VMmapAlloc@@@@@HL@@QAEXPAX@Z
?free@?$HoardManager@V?$AlignedSuperblockHeap@VWinLockType@HL@@$0BAAA@@@V?$EmptyHoardManager@V?$HoardSuperblock@VWinLockType@HL@@$0BAAA@VProcessHeap1@@@@$0BAAA@@@V?$HoardSuperblock@VWinLockType@HL@@$0BAAA@VProcessHeap1@@@@$0BAAA@$07VWinLockType@HL@@VbogusThresholdFunctionClass@@VProcessHeap1@@@@UAEXPAX@Z
?free@?$HoardManager@V?$AlignedSuperblockHeap@VWinLockType@HL@@$0BAAA@@@VProcessHeap@@V?$HoardSuperblock@VWinLockType@HL@@$0BAAA@VSmallHeap@@@@$0BAAA@$07VWinLockType@HL@@VhoardThresholdFunctionClass@@VSmallHeap@@@@UAEXPAX@Z
?free@?$HybridHeap@$0PLI@V?$ThreadPoolHeap@$0EAA@$0IA@VPerThreadHoardHeap@@@@VBigHeap@@@HL@@QAEXPAX@Z
?free@?$IgnoreInvalidFree@V?$ANSIWrapper@V?$HybridHeap@$0PLI@V?$ThreadPoolHeap@$0EAA@$0IA@VPerThreadHoardHeap@@@@VBigHeap@@@HL@@@HL@@@@QAEXPAX@Z
?free@?$LockedHeap@VWinLockType@HL@@VBigHeapSuper@@@HL@@QAEXPAX@Z
?free@?$RedirectFree@V?$LockMallocHeap@VSmallHeap@@@@V?$HoardSuperblock@VWinLockType@HL@@$0BAAA@VSmallHeap@@@@$0BAAA@@@SAXPAX@Z
?free@?$ThreadLocalAllocationBuffer@$0CB@$1?getSizeClass@?$bins@VNoHeader@@$0BAAA@@HL@@SAHI@Z$1?getClassSize@23@SAIH@Z$0IA@$0BAAAA@V?$HoardSuperblock@VWinLockType@HL@@$0BAAA@VSmallHeap@@@@$0BAAA@VHoardHeapType@@@@QAEXPAX@Z
?free@?$ThreadPoolHeap@$0EAA@$0IA@VPerThreadHoardHeap@@@@QAEXPAX@Z
?get@?$EmptyClass@V?$HoardSuperblock@VWinLockType@HL@@$0BAAA@VProcessHeap1@@@@$07$0BAAA@@@QAEPAV?$HoardSuperblock@VWinLockType@HL@@$0BAAA@VProcessHeap1@@@@XZ
?get@?$EmptyClass@V?$HoardSuperblock@VWinLockType@HL@@$0BAAA@VSmallHeap@@@@$07$0BAAA@@@QAEPAV?$HoardSuperblock@VWinLockType@HL@@$0BAAA@VSmallHeap@@@@XZ
?get@?$HoardManager@V?$AlignedSuperblockHeap@VWinLockType@HL@@$0BAAA@@@V?$EmptyHoardManager@V?$HoardSuperblock@VWinLockType@HL@@$0BAAA@VProcessHeap1@@@@$0BAAA@@@V?$HoardSuperblock@VWinLockType@HL@@$0BAAA@VProcessHeap1@@@@$0BAAA@$07VWinLockType@HL@@VbogusThresholdFunctionClass@@VProcessHeap1@@@@QAEPAV?$HoardSuperblock@VWinLockType@HL@@$0BAAA@VProcessHeap1@@@@IPAVProcessHeap1@@@Z
?get@?$ManageOneSuperblock@V?$EmptyClass@V?$HoardSuperblock@VWinLockType@HL@@$0BAAA@VProcessHeap1@@@@$07$0BAAA@@@@@QAEPAV?$HoardSuperblock@VWinLockType@HL@@$0BAAA@VProcessHeap1@@@@XZ
?get@DLList@HL@@QAEPAVEntry@12@XZ
?get@FreeSLList@@QAEPAVEntry@1@XZ
?get@ProcessHeap@@QAEPAV?$HoardSuperblock@VWinLockType@HL@@$0BAAA@VProcessHeap1@@@@IPAV1@@Z
?getAllocated@Statistics@@QBEHXZ
?getAnotherSuperblock@?$HoardManager@V?$AlignedSuperblockHeap@VWinLockType@HL@@$0BAAA@@@VProcessHeap@@V?$HoardSuperblock@VWinLockType@HL@@$0BAAA@VSmallHeap@@@@$0BAAA@$07VWinLockType@HL@@VhoardThresholdFunctionClass@@VSmallHeap@@@@QAEPAXI@Z
?getClassSize@?$bins@V?$SuperblockHeader@V?$AddLockSuperblockHeader@VWinLockType@HL@@VNoHeader@@$0BAAA@V?$HoardSuperblock@VWinLockType@HL@@$0BAAA@VSmallHeap@@@@VSmallHeap@@@@@@$0BAAA@@HL@@SAIH@Z
?getClassSize@?$bins@VNoHeader@@$0BAAA@@HL@@SAIH@Z
?getEmpty@?$EmptyClass@V?$HoardSuperblock@VWinLockType@HL@@$0BAAA@VSmallHeap@@@@$07$0BAAA@@@QAEPAV?$HoardSuperblock@VWinLockType@HL@@$0BAAA@VSmallHeap@@@@XZ
?getEmpty@?$ManageOneSuperblock@V?$EmptyClass@V?$HoardSuperblock@VWinLockType@HL@@$0BAAA@VSmallHeap@@@@$07$0BAAA@@@@@QAEPAV?$HoardSuperblock@VWinLockType@HL@@$0BAAA@VSmallHeap@@@@XZ
?getFullness@?$EmptyClass@V?$HoardSuperblock@VWinLockType@HL@@$0BAAA@VProcessHeap1@@@@$07$0BAAA@@@CAHPAV?$HoardSuperblock@VWinLockType@HL@@$0BAAA@VProcessHeap1@@@@@Z
?getFullness@?$EmptyClass@V?$HoardSuperblock@VWinLockType@HL@@$0BAAA@VSmallHeap@@@@$07$0BAAA@@@CAHPAV?$HoardSuperblock@VWinLockType@HL@@$0BAAA@VSmallHeap@@@@@Z
?getHeap@?$ThreadPoolHeap@$0EAA@$0IA@VPerThreadHoardHeap@@@@QAEAAVPerThreadHoardHeap@@XZ
?getHeap@ProcessHeap@@CAPAVProcessHeap1@@XZ
?getInUse@Statistics@@QBEHXZ
?getInusemap@?$ThreadPoolHeap@$0EAA@$0IA@VPerThreadHoardHeap@@@@QBEHH@Z
?getNext@?$OwnerHeader@V?$AddLock@VWinLockType@HL@@VNoHeader@@@@V?$HoardSuperblock@VWinLockType@HL@@$0BAAA@VProcessHeap1@@@@VProcessHeap1@@@@QBEPAV?$HoardSuperblock@VWinLockType@HL@@$0BAAA@VProcessHeap1@@@@XZ
?getNext@?$OwnerHeader@V?$AddLock@VWinLockType@HL@@VNoHeader@@@@V?$HoardSuperblock@VWinLockType@HL@@$0BAAA@VSmallHeap@@@@VSmallHeap@@@@QBEPAV?$HoardSuperblock@VWinLockType@HL@@$0BAAA@VSmallHeap@@@@XZ
?getObject@?$HoardManager@V?$AlignedSuperblockHeap@VWinLockType@HL@@$0BAAA@@@VProcessHeap@@V?$HoardSuperblock@VWinLockType@HL@@$0BAAA@VSmallHeap@@@@$0BAAA@$07VWinLockType@HL@@VhoardThresholdFunctionClass@@VSmallHeap@@@@AAEPAXHI@Z
?getObjectSize@?$SuperblockHeader@V?$AddLockSuperblockHeader@VWinLockType@HL@@VNoHeader@@$0BAAA@V?$HoardSuperblock@VWinLockType@HL@@$0BAAA@VSmallHeap@@@@VSmallHeap@@@@@@QBEIXZ
?getObjectsFree@?$SuperblockHeader@V?$AddLockSuperblockHeader@VWinLockType@HL@@VNoHeader@@$0BAAA@V?$HoardSuperblock@VWinLockType@HL@@$0BAAA@VProcessHeap1@@@@VProcessHeap1@@@@@@QBEHXZ
?getObjectsFree@?$SuperblockHeader@V?$AddLockSuperblockHeader@VWinLockType@HL@@VNoHeader@@$0BAAA@V?$HoardSuperblock@VWinLockType@HL@@$0BAAA@VSmallHeap@@@@VSmallHeap@@@@@@QBEHXZ
?getOwner@?$OwnerHeader@V?$AddLock@VWinLockType@HL@@VNoHeader@@@@V?$HoardSuperblock@VWinLockType@HL@@$0BAAA@VSmallHeap@@@@VSmallHeap@@@@QBEPAVSmallHeap@@XZ
?getSize@?$ANSIWrapper@V?$HybridHeap@$0PLI@V?$ThreadPoolHeap@$0EAA@$0IA@VPerThreadHoardHeap@@@@VBigHeap@@@HL@@@HL@@QAEIPAX@Z
?getSize@?$BaseHoardManager@V?$HoardSuperblock@VWinLockType@HL@@$0BAAA@VSmallHeap@@@@$0BAAA@@@SAIPAX@Z
?getSize@?$IgnoreInvalidFree@V?$ANSIWrapper@V?$HybridHeap@$0PLI@V?$ThreadPoolHeap@$0EAA@$0IA@VPerThreadHoardHeap@@@@VBigHeap@@@HL@@@HL@@@@QAEIPAX@Z
?getSize@?$RedirectFree@V?$LockMallocHeap@VSmallHeap@@@@V?$HoardSuperblock@VWinLockType@HL@@$0BAAA@VSmallHeap@@@@$0BAAA@@@QAEIPAX@Z
?getSize@?$ThreadLocalAllocationBuffer@$0CB@$1?getSizeClass@?$bins@VNoHeader@@$0BAAA@@HL@@SAHI@Z$1?getClassSize@23@SAIH@Z$0IA@$0BAAAA@V?$HoardSuperblock@VWinLockType@HL@@$0BAAA@VSmallHeap@@@@$0BAAA@VHoardHeapType@@@@QAEIPAX@Z
?getSize@?$ThreadPoolHeap@$0EAA@$0IA@VPerThreadHoardHeap@@@@QAEIPAX@Z
?getSizeClass@?$bins@V?$SuperblockHeader@V?$AddLockSuperblockHeader@VWinLockType@HL@@VNoHeader@@$0BAAA@V?$HoardSuperblock@VWinLockType@HL@@$0BAAA@VProcessHeap1@@@@VProcessHeap1@@@@@@$0BAAA@@HL@@SAHI@Z
?getSizeClass@?$bins@V?$SuperblockHeader@V?$AddLockSuperblockHeader@VWinLockType@HL@@VNoHeader@@$0BAAA@V?$HoardSuperblock@VWinLockType@HL@@$0BAAA@VSmallHeap@@@@VSmallHeap@@@@@@$0BAAA@@HL@@SAHI@Z
?getSizeClass@?$bins@VNoHeader@@$0BAAA@@HL@@SAHI@Z
?getSuperblock@?$BaseHoardManager@V?$HoardSuperblock@VWinLockType@HL@@$0BAAA@VSmallHeap@@@@$0BAAA@@@SAPAV?$HoardSuperblock@VWinLockType@HL@@$0BAAA@VSmallHeap@@@@PAX@Z
?getSuperblock@?$RedirectFree@V?$LockMallocHeap@VSmallHeap@@@@V?$HoardSuperblock@VWinLockType@HL@@$0BAAA@VSmallHeap@@@@$0BAAA@@@QAEPAV?$HoardSuperblock@VWinLockType@HL@@$0BAAA@VSmallHeap@@@@PAX@Z
?getSuperblock@?$ThreadLocalAllocationBuffer@$0CB@$1?getSizeClass@?$bins@VNoHeader@@$0BAAA@@HL@@SAHI@Z$1?getClassSize@23@SAIH@Z$0IA@$0BAAAA@V?$HoardSuperblock@VWinLockType@HL@@$0BAAA@VSmallHeap@@@@$0BAAA@VHoardHeapType@@@@CAPAV?$HoardSuperblock@VWinLockType@HL@@$0BAAA@VSmallHeap@@@@PAX@Z
?getThreadId@CPUInfo@HL@@SAHXZ
?getTidMap@?$ThreadPoolHeap@$0EAA@$0IA@VPerThreadHoardHeap@@@@QBEHH@Z
?getTotalObjects@?$SuperblockHeader@V?$AddLockSuperblockHeader@VWinLockType@HL@@VNoHeader@@$0BAAA@V?$HoardSuperblock@VWinLockType@HL@@$0BAAA@VProcessHeap1@@@@VProcessHeap1@@@@@@QBEHXZ
?getTotalObjects@?$SuperblockHeader@V?$AddLockSuperblockHeader@VWinLockType@HL@@VNoHeader@@$0BAAA@V?$HoardSuperblock@VWinLockType@HL@@$0BAAA@VSmallHeap@@@@VSmallHeap@@@@@@QBEHXZ
?insert@?$_Tree@V?$_Tmap_traits@PBXIU?$less@PBX@std@@V?$CustomAllocator@U?$pair@PBXI@std@@@?$AlignedMmapInstance@$0BAAA@@@$0A@@std@@@std@@QAE?AU?$pair@Viterator@?$_Tree@V?$_Tmap_traits@PBXIU?$less@PBX@std@@V?$CustomAllocator@U?$pair@PBXI@std@@@?$AlignedMmapInstance@$0BAAA@@@$0A@@std@@@std@@_N@2@ABU?$pair@QBXI@2@@Z
?insert@?$_Tree@V?$_Tmap_traits@PBXIU?$less@PBX@std@@V?$CustomAllocator@U?$pair@PBXI@std@@@?$AlignedMmapInstance@$0BAAA@@@$0A@@std@@@std@@QAE?AViterator@12@V312@ABU?$pair@QBXI@2@@Z
?insert@DLList@HL@@QAEXPAVEntry@12@@Z
?insert@Entry@DLList@HL@@QAEXPAV123@0@Z
?isValidSuperblock@?$SuperblockHeader@V?$AddLockSuperblockHeader@VWinLockType@HL@@VNoHeader@@$0BAAA@V?$HoardSuperblock@VWinLockType@HL@@$0BAAA@VSmallHeap@@@@VSmallHeap@@@@@@QBE_NXZ
?lock@?$AddLock@VWinLockType@HL@@VNoHeader@@@@QAEXXZ
?lock@?$BaseHoardManager@V?$HoardSuperblock@VWinLockType@HL@@$0BAAA@VProcessHeap1@@@@$0BAAA@@@UAEXXZ
?lock@?$BaseHoardManager@V?$HoardSuperblock@VWinLockType@HL@@$0BAAA@VSmallHeap@@@@$0BAAA@@@UAEXXZ
?lock@?$EmptyHoardManager@V?$HoardSuperblock@VWinLockType@HL@@$0BAAA@VProcessHeap1@@@@$0BAAA@@@UAEXXZ
?lock@?$HoardManager@V?$AlignedSuperblockHeap@VWinLockType@HL@@$0BAAA@@@V?$EmptyHoardManager@V?$HoardSuperblock@VWinLockType@HL@@$0BAAA@VProcessHeap1@@@@$0BAAA@@@V?$HoardSuperblock@VWinLockType@HL@@$0BAAA@VProcessHeap1@@@@$0BAAA@$07VWinLockType@HL@@VbogusThresholdFunctionClass@@VProcessHeap1@@@@UAEXXZ
?lock@?$HoardManager@V?$AlignedSuperblockHeap@VWinLockType@HL@@$0BAAA@@@VProcessHeap@@V?$HoardSuperblock@VWinLockType@HL@@$0BAAA@VSmallHeap@@@@$0BAAA@$07VWinLockType@HL@@VhoardThresholdFunctionClass@@VSmallHeap@@@@UAEXXZ
?lock@WinLockType@HL@@QAEXXZ
?lower_bound@?$_Tree@V?$_Tmap_traits@PBXIU?$less@PBX@std@@V?$CustomAllocator@U?$pair@PBXI@std@@@?$AlignedMmapInstance@$0BAAA@@@$0A@@std@@@std@@QAE?AViterator@12@ABQBX@Z
?malloc@?$ANSIWrapper@V?$HybridHeap@$0PLI@V?$ThreadPoolHeap@$0EAA@$0IA@VPerThreadHoardHeap@@@@VBigHeap@@@HL@@@HL@@QAEPAXI@Z
?malloc@?$AddHeaderHeap@V?$HoardSuperblock@VWinLockType@HL@@$0BAAA@VBigHeapSuper@@@@$0BAAA@V?$AlignedMmap@$0BAAA@@@@@QAEPAXI@Z
?malloc@?$AlignedMmap@$0BAAA@@@QAEPAXI@Z
?malloc@?$AlignedMmapInstance@$0BAAA@@@QAEPAXI@Z
?malloc@?$BumpAlloc@$0EAAA@VMmapAlloc@@@@QAEPAXI@Z
?malloc@?$FixedRequestHeap@$0BAAA@V?$AlignedMmap@$0BAAA@@@@@QAEPAXI@Z
?malloc@?$FreelistHeap@V?$BumpAlloc@$0EAAA@VMmapAlloc@@@@@HL@@QAEPAXI@Z
?malloc@?$HoardManager@V?$AlignedSuperblockHeap@VWinLockType@HL@@$0BAAA@@@VProcessHeap@@V?$HoardSuperblock@VWinLockType@HL@@$0BAAA@VSmallHeap@@@@$0BAAA@$07VWinLockType@HL@@VhoardThresholdFunctionClass@@VSmallHeap@@@@QAEPAXI@Z
?malloc@?$HybridHeap@$0PLI@V?$ThreadPoolHeap@$0EAA@$0IA@VPerThreadHoardHeap@@@@VBigHeap@@@HL@@QAEPAXI@Z
?malloc@?$LockMallocHeap@VSmallHeap@@@@QAEPAXI@Z
?malloc@?$LockedHeap@VWinLockType@HL@@V?$FixedRequestHeap@$0BAAA@V?$AlignedMmap@$0BAAA@@@@@@HL@@QAEPAXI@Z
?malloc@?$LockedHeap@VWinLockType@HL@@VBigHeapSuper@@@HL@@QAEPAXI@Z
?malloc@?$ManageOneSuperblock@V?$EmptyClass@V?$HoardSuperblock@VWinLockType@HL@@$0BAAA@VSmallHeap@@@@$07$0BAAA@@@@@QAEPAXI@Z
?malloc@?$RedirectFree@V?$LockMallocHeap@VSmallHeap@@@@V?$HoardSuperblock@VWinLockType@HL@@$0BAAA@VSmallHeap@@@@$0BAAA@@@QAEPAXI@Z
?malloc@?$Superblock@V?$AddLockSuperblockHeader@VWinLockType@HL@@VNoHeader@@$0BAAA@V?$HoardSuperblock@VWinLockType@HL@@$0BAAA@VSmallHeap@@@@VSmallHeap@@@@$0BAAA@@@QAEPAXI@Z
?malloc@?$SuperblockHeader@V?$AddLockSuperblockHeader@VWinLockType@HL@@VNoHeader@@$0BAAA@V?$HoardSuperblock@VWinLockType@HL@@$0BAAA@VSmallHeap@@@@VSmallHeap@@@@@@QAEPAXI@Z
?malloc@?$ThreadLocalAllocationBuffer@$0CB@$1?getSizeClass@?$bins@VNoHeader@@$0BAAA@@HL@@SAHI@Z$1?getClassSize@23@SAIH@Z$0IA@$0BAAAA@V?$HoardSuperblock@VWinLockType@HL@@$0BAAA@VSmallHeap@@@@$0BAAA@VHoardHeapType@@@@QAEPAXI@Z
?malloc@?$ThreadPoolHeap@$0EAA@$0IA@VPerThreadHoardHeap@@@@QAEPAXI@Z
?malloc@BigHeap@@QAEPAXI@Z
?malloc@MmapAlloc@@QAEPAXI@Z
?map@MmapWrapper@HL@@SAPAXI@Z
?max_size@?$STLAllocator@U?$pair@QBXI@std@@VSourceHeap@?$AlignedMmapInstance@$0BAAA@@@@HL@@QBEIXZ
?max_size@?$_Tree@V?$_Tmap_traits@PBXIU?$less@PBX@std@@V?$CustomAllocator@U?$pair@PBXI@std@@@?$AlignedMmapInstance@$0BAAA@@@$0A@@std@@@std@@QBEIXZ
?put@?$EmptyClass@V?$HoardSuperblock@VWinLockType@HL@@$0BAAA@VProcessHeap1@@@@$07$0BAAA@@@QAEXPAV?$HoardSuperblock@VWinLockType@HL@@$0BAAA@VProcessHeap1@@@@@Z
?put@?$EmptyClass@V?$HoardSuperblock@VWinLockType@HL@@$0BAAA@VSmallHeap@@@@$07$0BAAA@@@QAEXPAV?$HoardSuperblock@VWinLockType@HL@@$0BAAA@VSmallHeap@@@@@Z
?put@?$HoardManager@V?$AlignedSuperblockHeap@VWinLockType@HL@@$0BAAA@@@V?$EmptyHoardManager@V?$HoardSuperblock@VWinLockType@HL@@$0BAAA@VProcessHeap1@@@@$0BAAA@@@V?$HoardSuperblock@VWinLockType@HL@@$0BAAA@VProcessHeap1@@@@$0BAAA@$07VWinLockType@HL@@VbogusThresholdFunctionClass@@VProcessHeap1@@@@QAEXPAV?$HoardSuperblock@VWinLockType@HL@@$0BAAA@VProcessHeap1@@@@I@Z
?put@?$ManageOneSuperblock@V?$EmptyClass@V?$HoardSuperblock@VWinLockType@HL@@$0BAAA@VSmallHeap@@@@$07$0BAAA@@@@@QAEXPAV?$HoardSuperblock@VWinLockType@HL@@$0BAAA@VSmallHeap@@@@@Z
?refill@?$BumpAlloc@$0EAAA@VMmapAlloc@@@@AAEXI@Z
?releaseHeap@?$HeapManager@VWinLockType@HL@@V?$HoardHeap@$0EAA@$0IA@@@@@QAEXXZ
?setAllocated@Statistics@@QAEXH@Z
?setInUse@Statistics@@QAEXH@Z
?setInusemap@?$ThreadPoolHeap@$0EAA@$0IA@VPerThreadHoardHeap@@@@QAEXHH@Z
?setNext@?$OwnerHeader@V?$AddLock@VWinLockType@HL@@VNoHeader@@@@V?$HoardSuperblock@VWinLockType@HL@@$0BAAA@VProcessHeap1@@@@VProcessHeap1@@@@QAEXPAV?$HoardSuperblock@VWinLockType@HL@@$0BAAA@VProcessHeap1@@@@@Z
?setNext@?$OwnerHeader@V?$AddLock@VWinLockType@HL@@VNoHeader@@@@V?$HoardSuperblock@VWinLockType@HL@@$0BAAA@VSmallHeap@@@@VSmallHeap@@@@QAEXPAV?$HoardSuperblock@VWinLockType@HL@@$0BAAA@VSmallHeap@@@@@Z
?setNext@Entry@DLList@HL@@QAEXPAV123@@Z
?setOwner@?$OwnerHeader@V?$AddLock@VWinLockType@HL@@VNoHeader@@@@V?$HoardSuperblock@VWinLockType@HL@@$0BAAA@VProcessHeap1@@@@VProcessHeap1@@@@QAEXPAVProcessHeap1@@@Z
?setOwner@?$OwnerHeader@V?$AddLock@VWinLockType@HL@@VNoHeader@@@@V?$HoardSuperblock@VWinLockType@HL@@$0BAAA@VSmallHeap@@@@VSmallHeap@@@@QAEXPAVSmallHeap@@@Z
?setPrev@?$OwnerHeader@V?$AddLock@VWinLockType@HL@@VNoHeader@@@@V?$HoardSuperblock@VWinLockType@HL@@$0BAAA@VProcessHeap1@@@@VProcessHeap1@@@@QAEXPAV?$HoardSuperblock@VWinLockType@HL@@$0BAAA@VProcessHeap1@@@@@Z
?setPrev@?$OwnerHeader@V?$AddLock@VWinLockType@HL@@VNoHeader@@@@V?$HoardSuperblock@VWinLockType@HL@@$0BAAA@VSmallHeap@@@@VSmallHeap@@@@QAEXPAV?$HoardSuperblock@VWinLockType@HL@@$0BAAA@VSmallHeap@@@@@Z
?setPrev@Entry@DLList@HL@@QAEXPAV123@@Z
?setTidMap@?$ThreadPoolHeap@$0EAA@$0IA@VPerThreadHoardHeap@@@@QAEXHH@Z
?size@?$_Tree@V?$_Tmap_traits@PBXIU?$less@PBX@std@@V?$CustomAllocator@U?$pair@PBXI@std@@@?$AlignedMmapInstance@$0BAAA@@@$0A@@std@@@std@@QBEIXZ
?slowLookupSizeClass@?$bins@V?$SuperblockHeader@V?$AddLockSuperblockHeader@VWinLockType@HL@@VNoHeader@@$0BAAA@V?$HoardSuperblock@VWinLockType@HL@@$0BAAA@VProcessHeap1@@@@VProcessHeap1@@@@@@$0BAAA@@HL@@CAHI@Z
?slowLookupSizeClass@?$bins@V?$SuperblockHeader@V?$AddLockSuperblockHeader@VWinLockType@HL@@VNoHeader@@$0BAAA@V?$HoardSuperblock@VWinLockType@HL@@$0BAAA@VSmallHeap@@@@VSmallHeap@@@@@@$0BAAA@@HL@@CAHI@Z
?slowLookupSizeClass@?$bins@VNoHeader@@$0BAAA@@HL@@CAHI@Z
?slowMallocPath@?$ManageOneSuperblock@V?$EmptyClass@V?$HoardSuperblock@VWinLockType@HL@@$0BAAA@VSmallHeap@@@@$07$0BAAA@@@@@AAEPAXI@Z
?slowPath@?$HybridHeap@$0PLI@V?$ThreadPoolHeap@$0EAA@$0IA@VPerThreadHoardHeap@@@@VBigHeap@@@HL@@AAEPAXI@Z
?slowPathFree@?$HoardManager@V?$AlignedSuperblockHeap@VWinLockType@HL@@$0BAAA@@@VProcessHeap@@V?$HoardSuperblock@VWinLockType@HL@@$0BAAA@VSmallHeap@@@@$0BAAA@$07VWinLockType@HL@@VhoardThresholdFunctionClass@@VSmallHeap@@@@AAEXHHH@Z
?slowPathMalloc@?$HoardManager@V?$AlignedSuperblockHeap@VWinLockType@HL@@$0BAAA@@@VProcessHeap@@V?$HoardSuperblock@VWinLockType@HL@@$0BAAA@VSmallHeap@@@@$0BAAA@$07VWinLockType@HL@@VhoardThresholdFunctionClass@@VSmallHeap@@@@AAEPAXI@Z
?theOneTrueInstance@?1???R?$ExactlyOne@V?$AlignedMmapInstance@$0BAAA@@@@@QAEAAV?$AlignedMmapInstance@$0BAAA@@@XZ@$AV1@A
?unlock@?$AddLock@VWinLockType@HL@@VNoHeader@@@@QAEXXZ
?unlock@?$BaseHoardManager@V?$HoardSuperblock@VWinLockType@HL@@$0BAAA@VProcessHeap1@@@@$0BAAA@@@UAEXXZ
?unlock@?$BaseHoardManager@V?$HoardSuperblock@VWinLockType@HL@@$0BAAA@VSmallHeap@@@@$0BAAA@@@UAEXXZ
?unlock@?$EmptyHoardManager@V?$HoardSuperblock@VWinLockType@HL@@$0BAAA@VProcessHeap1@@@@$0BAAA@@@UAEXXZ
?unlock@?$HoardManager@V?$AlignedSuperblockHeap@VWinLockType@HL@@$0BAAA@@@V?$EmptyHoardManager@V?$HoardSuperblock@VWinLockType@HL@@$0BAAA@VProcessHeap1@@@@$0BAAA@@@V?$HoardSuperblock@VWinLockType@HL@@$0BAAA@VProcessHeap1@@@@$0BAAA@$07VWinLockType@HL@@VbogusThresholdFunctionClass@@VProcessHeap1@@@@UAEXXZ
?unlock@?$HoardManager@V?$AlignedSuperblockHeap@VWinLockType@HL@@$0BAAA@@@VProcessHeap@@V?$HoardSuperblock@VWinLockType@HL@@$0BAAA@VSmallHeap@@@@$0BAAA@$07VWinLockType@HL@@VhoardThresholdFunctionClass@@VSmallHeap@@@@UAEXXZ
?unlock@WinLockType@HL@@QAEXXZ
?unlocked_put@?$HoardManager@V?$AlignedSuperblockHeap@VWinLockType@HL@@$0BAAA@@@V?$EmptyHoardManager@V?$HoardSuperblock@VWinLockType@HL@@$0BAAA@VProcessHeap1@@@@$0BAAA@@@V?$HoardSuperblock@VWinLockType@HL@@$0BAAA@VProcessHeap1@@@@$0BAAA@$07VWinLockType@HL@@VbogusThresholdFunctionClass@@VProcessHeap1@@@@AAEXPAV?$HoardSuperblock@VWinLockType@HL@@$0BAAA@VProcessHeap1@@@@I@Z
?unlocked_put@?$HoardManager@V?$AlignedSuperblockHeap@VWinLockType@HL@@$0BAAA@@@VProcessHeap@@V?$HoardSuperblock@VWinLockType@HL@@$0BAAA@VSmallHeap@@@@$0BAAA@$07VWinLockType@HL@@VhoardThresholdFunctionClass@@VSmallHeap@@@@AAEXPAV?$HoardSuperblock@VWinLockType@HL@@$0BAAA@VSmallHeap@@@@I@Z
?unmap@MmapWrapper@HL@@SAXPAXI@Z
?what@logic_error@std@@UBEPBDXZ
?yield@Fred@HL@@SAXXZ
calloc
free
malloc
malloc_usable_size
mallopt
memalign
pvalloc
realloc
strdup
valloc
